(lp0
V00000
p1
aVazur
p2
aI3600
aI0
aI0
aI0
aI0
aS'https://www.med-in-box.fr/agahtir/blink.php'
p3
aS'francais'
p4
aI4
aI1
aS'/dev/serial/by-id/usb-Prolific_Technology_Inc._USB-Serial_Controller-if00-port0'
p5
aI12301
a.